; Function Attrs: mustprogress uwtable
define hidden void @_ZN4cvc58internal4prop13CadicalSolver4pushEv(ptr noundef nonnull align 8 dereferenceable(144) %this) unnamed_addr #3 align 2 {
entry:
  %alit = alloca i64, align 8
  %d_context = getelementptr inbounds i8, ptr %this, i64 40
  %0 = load ptr, ptr %d_context, align 8
  tail call void @_ZN4cvc57context7Context4pushEv(ptr noundef nonnull align 8 dereferenceable(48) %0)
  %vtable = load ptr, ptr %this, align 8
  %vfn = getelementptr inbounds i8, ptr %vtable, i64 40
  %1 = load ptr, ptr %vfn, align 8
  %call = tail call noundef i64 %1(ptr noundef nonnull align 8 dereferenceable(144) %this, i1 noundef zeroext false, i1 noundef zeroext true)
  store i64 %call, ptr %alit, align 8
  %d_propagator = getelementptr inbounds i8, ptr %this, i64 56
  %2 = load ptr, ptr %d_propagator, align 8
  call void @_ZN4cvc58internal4prop17CadicalPropagator9user_pushERm(ptr noundef nonnull align 8 dereferenceable(482) %2, ptr noundef nonnull align 8 dereferenceable(8) %alit)
  ret void
}